Certificate:
    Data:
        Version: 3 (0x2)
        Serial Number:
            55:b6:51:4c:3b:65:17:43:c9:25:89:f8:e9:54:c7:c8
    Signature Algorithm: sha256WithRSAEncryption
        Issuer: CN=server
        Validity
            Not Before: Jun 28 20:10:00 2018 GMT
            Not After : Jun 25 20:10:00 2028 GMT
        Subject: CN=server
        Subject Public Key Info:
            Public Key Algorithm: rsaEncryption
                Public-Key: (2048 bit)
                Modulus:
                    00:d6:8c:75:85:34:df:92:66:e2:83:e4:22:45:fc:
                    84:dc:3a:ca:9e:d7:81:a6:bc:48:4f:0a:15:f7:43:
                    ae:c0:3a:d9:eb:64:b9:21:27:40:d9:d2:7b:b6:62:
                    3f:54:0b:e8:20:41:76:be:7b:e9:7e:2a:4d:7e:e8:
                    f2:e5:5d:43:56:cc:ea:a8:55:27:27:0f:03:f0:46:
                    a3:7f:59:17:c1:65:39:01:a5:bd:56:f4:5a:d0:da:
                    ec:6e:a5:40:e6:65:a2:b0:fe:7b:04:81:55:2b:d3:
                    80:7c:ca:a2:6d:06:d1:62:b3:81:a7:e1:16:60:81:
                    05:d6:a2:dc:08:c7:59:13:e3:49:cf:e1:d5:d9:13:
                    29:ca:76:2e:0d:7f:05:d5:bb:c1:e4:fd:33:c6:ab:
                    e1:44:17:ed:fa:c8:39:ab:01:f3:cf:94:46:20:d3:
                    96:b3:34:a0:c7:91:1b:e8:04:7b:d5:c5:44:b2:70:
                    34:4e:ad:c6:5f:17:ec:37:e4:1e:a2:f0:9e:89:d9:
                    48:c2:23:9c:78:fe:b7:ce:7d:aa:d9:2f:48:d2:30:
                    ce:e6:a5:59:cb:aa:77:89:9b:69:ac:57:59:77:d3:
                    59:98:1c:e6:75:23:f4:ad:ef:36:7c:1f:6e:17:7e:
                    f7:6f:7c:c1:58:08:fa:ac:68:9e:dd:f0:b7:50:7e:
                    16:c9
                Exponent: 65537 (0x10001)
        X509v3 extensions:
            X509v3 Basic Constraints: 
                CA:FALSE
            X509v3 Subject Key Identifier: 
                0A:39:98:DA:4F:81:A4:5D:61:41:A5:5B:6C:EA:CF:15:C7:79:73:6F
            X509v3 Authority Key Identifier: 
                keyid:B2:FD:66:A0:71:E1:55:8D:82:58:9A:A7:D5:55:38:D9:3F:1C:5A:C2
                DirName:/CN=server
                serial:CA:DF:8F:57:0F:97:64:29

            X509v3 Extended Key Usage: 
                TLS Web Server Authentication
            X509v3 Key Usage: 
                Digital Signature, Key Encipherment
            X509v3 Subject Alternative Name: 
                DNS:server
    Signature Algorithm: sha256WithRSAEncryption
         9d:c7:ce:d4:1c:fe:ca:da:05:28:cb:a7:ba:b6:06:da:f8:5b:
         55:e0:e5:41:48:19:e5:f4:e0:a2:b5:34:04:85:e5:c3:47:c7:
         2e:54:d5:58:2e:81:bd:65:57:8d:32:b9:7d:a1:8d:dd:60:ae:
         a1:ef:61:2d:8f:d3:4f:80:f8:a5:6e:c4:3d:bd:a7:1d:96:7d:
         a4:63:70:7a:6e:22:00:39:44:85:6e:89:64:a3:ce:19:d8:5e:
         3b:f4:07:6c:60:12:72:72:49:be:67:18:16:70:f8:1b:cb:a2:
         11:b0:cc:0e:fb:cd:3b:ac:ba:b9:eb:3c:45:8c:99:cc:43:1b:
         31:b6:fc:d6:58:d9:26:84:63:4c:21:ee:44:ef:48:66:c1:c1:
         e9:49:74:59:38:50:ae:a1:cd:a2:20:66:24:8f:05:c4:97:81:
         da:6d:b4:72:0c:80:33:79:e5:86:fe:cf:2e:88:e0:47:2c:62:
         92:06:0f:c7:6b:0f:f6:02:0b:fa:aa:ce:36:e7:3f:1f:3f:da:
         8f:e0:8c:ee:60:04:58:49:28:82:9b:0c:43:ea:e2:b7:5a:14:
         2f:45:86:f9:8a:60:84:fe:1c:01:c2:41:02:3c:23:d1:c6:af:
         7a:a1:18:0d:e6:de:15:36:1c:2e:99:cf:c5:ac:de:8c:6e:6d:
         68:88:f1:68
-----BEGIN CERTIFICATE-----
MIIDUjCCAjqgAwIBAgIQVbZRTDtlF0PJJYn46VTHyDANBgkqhkiG9w0BAQsFADAR
MQ8wDQYDVQQDDAZzZXJ2ZXIwHhcNMTgwNjI4MjAxMDAwWhcNMjgwNjI1MjAxMDAw
WjARMQ8wDQYDVQQDDAZzZXJ2ZXIwggEiMA0GCSqGSIb3DQEBAQUAA4IBDwAwggEK
AoIBAQDWjHWFNN+SZuKD5CJF/ITcOsqe14GmvEhPChX3Q67AOtnrZLkhJ0DZ0nu2
Yj9UC+ggQXa+e+l+Kk1+6PLlXUNWzOqoVScnDwPwRqN/WRfBZTkBpb1W9FrQ2uxu
pUDmZaKw/nsEgVUr04B8yqJtBtFis4Gn4RZggQXWotwIx1kT40nP4dXZEynKdi4N
fwXVu8Hk/TPGq+FEF+36yDmrAfPPlEYg05azNKDHkRvoBHvVxUSycDROrcZfF+w3
5B6i8J6J2UjCI5x4/rfOfarZL0jSMM7mpVnLqneJm2msV1l301mYHOZ1I/St7zZ8
H24XfvdvfMFYCPqsaJ7d8LdQfhbJAgMBAAGjgaUwgaIwCQYDVR0TBAIwADAdBgNV
HQ4EFgQUCjmY2k+BpF1hQaVbbOrPFcd5c28wQQYDVR0jBDowOIAUsv1moHHhVY2C
WJqn1VU42T8cWsKhFaQTMBExDzANBgNVBAMMBnNlcnZlcoIJAMrfj1cPl2QpMBMG
A1UdJQQMMAoGCCsGAQUFBwMBMAsGA1UdDwQEAwIFoDARBgNVHREECjAIggZzZXJ2
ZXIwDQYJKoZIhvcNAQELBQADggEBAJ3HztQc/sraBSjLp7q2Btr4W1Xg5UFIGeX0
4KK1NASF5cNHxy5U1Vgugb1lV40yuX2hjd1grqHvYS2P00+A+KVuxD29px2WfaRj
cHpuIgA5RIVuiWSjzhnYXjv0B2xgEnJySb5nGBZw+BvLohGwzA77zTusurnrPEWM
mcxDGzG2/NZY2SaEY0wh7kTvSGbBwelJdFk4UK6hzaIgZiSPBcSXgdpttHIMgDN5
5Yb+zy6I4EcsYpIGD8drD/YCC/qqzjbnPx8/2o/gjO5gBFhJKIKbDEPq4rdaFC9F
hvmKYIT+HAHCQQI8I9HGr3qhGA3m3hU2HC6Zz8Ws3oxubWiI8Wg=
-----END CERTIFICATE-----
